; Function Attrs: nounwind uwtable
define dso_local range(i32 -1, 1) i32 @PyErr_ResourceWarning(ptr noundef %0, i64 noundef %1, ptr noundef %2, ...) local_unnamed_addr #0 {
  %4 = alloca [1 x %struct.__va_list_tag], align 16
  call void @llvm.lifetime.start.p0(i64 24, ptr nonnull %4) #7
  call void @llvm.va_start.p0(ptr nonnull %4)
  %5 = load ptr, ptr @PyExc_ResourceWarning, align 8, !tbaa !14
  %6 = call ptr @PyUnicode_FromFormatV(ptr noundef %2, ptr noundef nonnull %4) #7
  %7 = icmp eq ptr %6, null
  br i1 %7, label %_PyErr_WarnFormatV.exit, label %8

8:                                                ; preds = %3
  %9 = icmp eq ptr %5, null
  %10 = load ptr, ptr @PyExc_RuntimeWarning, align 8
  %spec.select.i.i = select i1 %9, ptr %10, ptr %5
  %11 = call fastcc ptr @do_warn(ptr noundef nonnull %6, ptr noundef %spec.select.i.i, i64 noundef %1, ptr noundef %0, ptr noundef null)
  %12 = icmp eq ptr %11, null
  br i1 %12, label %warn_unicode.exit.i, label %13

13:                                               ; preds = %8
  %14 = load i32, ptr %11, align 8, !tbaa !15
  %.not.i.i.i = icmp sgt i32 %14, -1
  br i1 %.not.i.i.i, label %15, label %warn_unicode.exit.i

15:                                               ; preds = %13
  %16 = add nsw i32 %14, -1
  store i32 %16, ptr %11, align 8, !tbaa !15
  %17 = icmp eq i32 %16, 0
  br i1 %17, label %18, label %warn_unicode.exit.i

18:                                               ; preds = %15
  call void @_Py_Dealloc(ptr noundef nonnull %11) #7
  br label %warn_unicode.exit.i

warn_unicode.exit.i:                              ; preds = %18, %15, %13, %8
  %.0.i.i = phi i32 [ -1, %8 ], [ 0, %13 ], [ 0, %15 ], [ 0, %18 ]
  %19 = load i32, ptr %6, align 8, !tbaa !15
  %.not.i.i = icmp sgt i32 %19, -1
  br i1 %.not.i.i, label %20, label %_PyErr_WarnFormatV.exit

20:                                               ; preds = %warn_unicode.exit.i
  %21 = add nsw i32 %19, -1
  store i32 %21, ptr %6, align 8, !tbaa !15
  %22 = icmp eq i32 %21, 0
  br i1 %22, label %23, label %_PyErr_WarnFormatV.exit

23:                                               ; preds = %20
  call void @_Py_Dealloc(ptr noundef nonnull %6) #7
  br label %_PyErr_WarnFormatV.exit

_PyErr_WarnFormatV.exit:                          ; preds = %3, %warn_unicode.exit.i, %20, %23
  %.0.i = phi i32 [ -1, %3 ], [ %.0.i.i, %warn_unicode.exit.i ], [ %.0.i.i, %20 ], [ %.0.i.i, %23 ]
  call void @llvm.va_end.p0(ptr nonnull %4)
  call void @llvm.lifetime.end.p0(i64 24, ptr nonnull %4) #7
  ret i32 %.0.i
}